; Function Attrs: mustprogress uwtable
define noundef zeroext i1 @_ZN7jsonnet7Jsonnet12evaluateFileERKNSt7__cxx1112basic_stringIcSt11char_traitsIcESaIcEEEPS6_(ptr noundef nonnull align 8 dereferenceable(40) %0, ptr noundef nonnull readonly align 8 captures(none) dereferenceable(32) %1, ptr noundef %2) local_unnamed_addr #5 align 2 {
  %4 = alloca i32, align 4
  %5 = icmp eq ptr %2, null
  br i1 %5, label %25, label %6

6:                                                ; preds = %3
  call void @llvm.lifetime.start.p0(i64 4, ptr nonnull %4) #18
  store i32 0, ptr %4, align 4, !tbaa !21
  %7 = load ptr, ptr %0, align 8, !tbaa !6
  %8 = load ptr, ptr %1, align 8, !tbaa !19
  %9 = call ptr @jsonnet_evaluate_file(ptr noundef %7, ptr noundef %8, ptr noundef nonnull %4)
  %10 = load i32, ptr %4, align 4, !tbaa !21
  %.not = icmp eq i32 %10, 0
  br i1 %.not, label %17, label %11

11:                                               ; preds = %6
  %12 = getelementptr inbounds nuw i8, ptr %0, i64 8
  %13 = getelementptr inbounds nuw i8, ptr %0, i64 16
  %14 = load i64, ptr %13, align 8, !tbaa !17
  %15 = call noundef i64 @strlen(ptr noundef nonnull dereferenceable(1) %9) #18
  %16 = call noundef nonnull align 8 dereferenceable(32) ptr @_ZNSt7__cxx1112basic_stringIcSt11char_traitsIcESaIcEE10_M_replaceEmmPKcm(ptr noundef nonnull align 8 dereferenceable(32) %12, i64 noundef 0, i64 noundef %14, ptr noundef nonnull %9, i64 noundef %15)
  br label %22

17:                                               ; preds = %6
  %18 = getelementptr inbounds nuw i8, ptr %2, i64 8
  %19 = load i64, ptr %18, align 8, !tbaa !17
  %20 = call noundef i64 @strlen(ptr noundef nonnull dereferenceable(1) %9) #18
  %21 = call noundef nonnull align 8 dereferenceable(32) ptr @_ZNSt7__cxx1112basic_stringIcSt11char_traitsIcESaIcEE10_M_replaceEmmPKcm(ptr noundef nonnull align 8 dereferenceable(32) %2, i64 noundef 0, i64 noundef %19, ptr noundef nonnull %9, i64 noundef %20)
  br label %22

22:                                               ; preds = %17, %11
  %23 = load ptr, ptr %0, align 8, !tbaa !6
  %24 = call ptr @jsonnet_realloc(ptr noundef %23, ptr noundef nonnull %9, i64 noundef 0)
  call void @llvm.lifetime.end.p0(i64 4, ptr nonnull %4) #18
  br label %25

25:                                               ; preds = %3, %22
  %.0 = phi i1 [ %.not, %22 ], [ false, %3 ]
  ret i1 %.0
}